     1 00000000                                 [FORMAT "WCOFF"]
     2 00000000                                 [INSTRSET "i486p"]
     3 00000000                                 [OPTIMIZE 1]
     4 00000000                                 [OPTION 1]
     5 00000000                                 [BITS 32]
     6 00000000                                 	EXTERN	_init_gdtidt
     7 00000000                                 	EXTERN	_init_pic
     8 00000000                                 	EXTERN	_io_sti
     9 00000000                                 	EXTERN	_fifo32_init
    10 00000000                                 	EXTERN	_io_out8
    11 00000000                                 	EXTERN	_init_keyboard
    12 00000000                                 	EXTERN	_enable_mouse
    13 00000000                                 	EXTERN	_init_pit
    14 00000000                                 	EXTERN	_timer_alloc
    15 00000000                                 	EXTERN	_timer_init
    16 00000000                                 	EXTERN	_timer_settime
    17 00000000                                 	EXTERN	_memtest
    18 00000000                                 	EXTERN	_memman_init
    19 00000000                                 	EXTERN	_memman_free
    20 00000000                                 	EXTERN	_init_palette
    21 00000000                                 	EXTERN	_shtctl_init
    22 00000000                                 	EXTERN	_sheet_alloc
    23 00000000                                 	EXTERN	_memman_alloc_4k
    24 00000000                                 	EXTERN	_sheet_setbuf
    25 00000000                                 	EXTERN	_init_screen8
    26 00000000                                 	EXTERN	_init_mouse_cursor8
    27 00000000                                 	EXTERN	_make_window8
    28 00000000                                 	EXTERN	_sheet_slide
    29 00000000                                 	EXTERN	_sheet_updown
    30 00000000                                 	EXTERN	_memman_total
    31 00000000                                 	EXTERN	_sprintf
    32 00000000                                 	EXTERN	_putfonts8_asc_sht
    33 00000000                                 	EXTERN	_sheet_refresh
    34 00000000                                 	EXTERN	_io_cli
    35 00000000                                 	EXTERN	_fifo32_status
    36 00000000                                 	EXTERN	_fifo32_get
    37 00000000                                 	EXTERN	_boxfill8
    38 00000000                                 	EXTERN	_mouse_decode
    39 00000000                                 [FILE "bootpack.c"]
    40                                          [SECTION .data]
    41 00000000                                 LC0:
    42 00000000 63 6F 75 6E 74 65 72 00         	DB	"counter",0x00
    43 00000008                                 LC1:
    44 00000008 6D 65 6D 6F 72 79 20 25 64 4B   	DB	"memory %dKB   free : %dKB",0x00
       00000012 42 20 20 20 66 72 65 65 20 3A 
       0000001C 20 25 64 4B 42 00 
    45 00000022                                 LC7:
    46 00000022 33 5B 73 65 63 5D 00            	DB	"3[sec]",0x00
    47 00000029                                 LC5:
    48 00000029 31 30 5B 73 65 63 5D 00         	DB	"10[sec]",0x00
    49 00000031                                 LC6:
    50 00000031 25 30 31 30 64 00               	DB	"%010d",0x00
    51 00000037                                 LC3:
    52 00000037 5B 6C 63 72 20 25 34 64 20 25   	DB	"[lcr %4d %4d]",0x00
       00000041 34 64 5D 00 
    53 00000045                                 LC4:
    54 00000045 28 25 33 64 2C 20 25 33 64 29   	DB	"(%3d, %3d)",0x00
       0000004F 00 
    55 00000050                                 LC2:
    56 00000050 25 30 32 58 00                  	DB	"%02X",0x00
    57                                          [SECTION .text]
    58 00000000                                 	GLOBAL	_HariMain
    59 00000000                                 _HariMain:
    60 00000000 55                              	PUSH	EBP
    61 00000001 89 E5                           	MOV	EBP,ESP
    62 00000003 57                              	PUSH	EDI
    63 00000004 56                              	PUSH	ESI
    64 00000005 53                              	PUSH	EBX
    65 00000006 8D B5 FFFFFC04                  	LEA	ESI,DWORD [-1020+EBP]
    66 0000000C 81 EC 00000528                  	SUB	ESP,1320
    67 00000012 E8 [00000000]                   	CALL	_init_gdtidt
    68 00000017 E8 [00000000]                   	CALL	_init_pic
    69 0000001C E8 [00000000]                   	CALL	_io_sti
    70 00000021 8D 85 FFFFFC24                  	LEA	EAX,DWORD [-988+EBP]
    71 00000027 50                              	PUSH	EAX
    72 00000028 68 00000080                     	PUSH	128
    73 0000002D 56                              	PUSH	ESI
    74 0000002E E8 [00000000]                   	CALL	_fifo32_init
    75 00000033 68 000000F8                     	PUSH	248
    76 00000038 6A 21                           	PUSH	33
    77 0000003A E8 [00000000]                   	CALL	_io_out8
    78 0000003F 68 000000EF                     	PUSH	239
    79 00000044 68 000000A1                     	PUSH	161
    80 00000049 E8 [00000000]                   	CALL	_io_out8
    81 0000004E 68 00000100                     	PUSH	256
    82 00000053 56                              	PUSH	ESI
    83 00000054 E8 [00000000]                   	CALL	_init_keyboard
    84 00000059 8D 85 FFFFFBF4                  	LEA	EAX,DWORD [-1036+EBP]
    85 0000005F 83 C4 24                        	ADD	ESP,36
    86 00000062 50                              	PUSH	EAX
    87 00000063 68 00000200                     	PUSH	512
    88 00000068 56                              	PUSH	ESI
    89 00000069 E8 [00000000]                   	CALL	_enable_mouse
    90 0000006E E8 [00000000]                   	CALL	_init_pit
    91 00000073 E8 [00000000]                   	CALL	_timer_alloc
    92 00000078 6A 0A                           	PUSH	10
    93 0000007A 56                              	PUSH	ESI
    94 0000007B 89 C3                           	MOV	EBX,EAX
    95 0000007D 50                              	PUSH	EAX
    96 0000007E E8 [00000000]                   	CALL	_timer_init
    97 00000083 68 000003E8                     	PUSH	1000
    98 00000088 53                              	PUSH	EBX
    99 00000089 E8 [00000000]                   	CALL	_timer_settime
   100 0000008E 83 C4 20                        	ADD	ESP,32
   101 00000091 E8 [00000000]                   	CALL	_timer_alloc
   102 00000096 6A 03                           	PUSH	3
   103 00000098 89 C3                           	MOV	EBX,EAX
   104 0000009A 56                              	PUSH	ESI
   105 0000009B 50                              	PUSH	EAX
   106 0000009C E8 [00000000]                   	CALL	_timer_init
   107 000000A1 68 0000012C                     	PUSH	300
   108 000000A6 53                              	PUSH	EBX
   109 000000A7 E8 [00000000]                   	CALL	_timer_settime
   110 000000AC E8 [00000000]                   	CALL	_timer_alloc
   111 000000B1 6A 01                           	PUSH	1
   112 000000B3 56                              	PUSH	ESI
   113 000000B4 50                              	PUSH	EAX
   114 000000B5 89 85 FFFFFAF0                  	MOV	DWORD [-1296+EBP],EAX
   115 000000BB E8 [00000000]                   	CALL	_timer_init
   116 000000C0 83 C4 20                        	ADD	ESP,32
   117 000000C3 6A 32                           	PUSH	50
   118 000000C5 FF B5 FFFFFAF0                  	PUSH	DWORD [-1296+EBP]
   119 000000CB E8 [00000000]                   	CALL	_timer_settime
   120 000000D0 68 BFFFFFFF                     	PUSH	-1073741825
   121 000000D5 68 00400000                     	PUSH	4194304
   122 000000DA E8 [00000000]                   	CALL	_memtest
   123 000000DF 68 003C0000                     	PUSH	3932160
   124 000000E4 89 85 FFFFFAEC                  	MOV	DWORD [-1300+EBP],EAX
   125 000000EA E8 [00000000]                   	CALL	_memman_init
   126 000000EF 68 0009E000                     	PUSH	647168
   127 000000F4 68 00001000                     	PUSH	4096
   128 000000F9 68 003C0000                     	PUSH	3932160
   129 000000FE E8 [00000000]                   	CALL	_memman_free
   130 00000103 8B 85 FFFFFAEC                  	MOV	EAX,DWORD [-1300+EBP]
   131 00000109 83 C4 20                        	ADD	ESP,32
   132 0000010C 2D 00400000                     	SUB	EAX,4194304
   133 00000111 50                              	PUSH	EAX
   134 00000112 68 00400000                     	PUSH	4194304
   135 00000117 68 003C0000                     	PUSH	3932160
   136 0000011C E8 [00000000]                   	CALL	_memman_free
   137 00000121 E8 [00000000]                   	CALL	_init_palette
   138 00000126 0F BF 05 00000FF6               	MOVSX	EAX,WORD [4086]
   139 0000012D 50                              	PUSH	EAX
   140 0000012E 0F BF 05 00000FF4               	MOVSX	EAX,WORD [4084]
   141 00000135 50                              	PUSH	EAX
   142 00000136 FF 35 00000FF8                  	PUSH	DWORD [4088]
   143 0000013C 68 003C0000                     	PUSH	3932160
   144 00000141 E8 [00000000]                   	CALL	_shtctl_init
   145 00000146 89 C3                           	MOV	EBX,EAX
   146 00000148 50                              	PUSH	EAX
   147 00000149 E8 [00000000]                   	CALL	_sheet_alloc
   148 0000014E 83 C4 20                        	ADD	ESP,32
   149 00000151 89 C7                           	MOV	EDI,EAX
   150 00000153 53                              	PUSH	EBX
   151 00000154 E8 [00000000]                   	CALL	_sheet_alloc
   152 00000159 53                              	PUSH	EBX
   153 0000015A 8D 9D FFFFFAF4                  	LEA	EBX,DWORD [-1292+EBP]
   154 00000160 89 85 FFFFFAE4                  	MOV	DWORD [-1308+EBP],EAX
   155 00000166 E8 [00000000]                   	CALL	_sheet_alloc
   156 0000016B 0F BF 15 00000FF6               	MOVSX	EDX,WORD [4086]
   157 00000172 89 85 FFFFFAE8                  	MOV	DWORD [-1304+EBP],EAX
   158 00000178 0F BF 05 00000FF4               	MOVSX	EAX,WORD [4084]
   159 0000017F 0F AF C2                        	IMUL	EAX,EDX
   160 00000182 50                              	PUSH	EAX
   161 00000183 68 003C0000                     	PUSH	3932160
   162 00000188 E8 [00000000]                   	CALL	_memman_alloc_4k
   163 0000018D 68 00002A80                     	PUSH	10880
   164 00000192 68 003C0000                     	PUSH	3932160
   165 00000197 89 85 FFFFFAE0                  	MOV	DWORD [-1312+EBP],EAX
   166 0000019D E8 [00000000]                   	CALL	_memman_alloc_4k
   167 000001A2 6A FF                           	PUSH	-1
   168 000001A4 89 C6                           	MOV	ESI,EAX
   169 000001A6 0F BF 05 00000FF6               	MOVSX	EAX,WORD [4086]
   170 000001AD 50                              	PUSH	EAX
   171 000001AE 0F BF 05 00000FF4               	MOVSX	EAX,WORD [4084]
   172 000001B5 50                              	PUSH	EAX
   173 000001B6 FF B5 FFFFFAE0                  	PUSH	DWORD [-1312+EBP]
   174 000001BC 57                              	PUSH	EDI
   175 000001BD E8 [00000000]                   	CALL	_sheet_setbuf
   176 000001C2 83 C4 2C                        	ADD	ESP,44
   177 000001C5 6A 63                           	PUSH	99
   178 000001C7 6A 10                           	PUSH	16
   179 000001C9 6A 10                           	PUSH	16
   180 000001CB 53                              	PUSH	EBX
   181 000001CC FF B5 FFFFFAE8                  	PUSH	DWORD [-1304+EBP]
   182 000001D2 E8 [00000000]                   	CALL	_sheet_setbuf
   183 000001D7 6A FF                           	PUSH	-1
   184 000001D9 6A 44                           	PUSH	68
   185 000001DB 68 000000A0                     	PUSH	160
   186 000001E0 56                              	PUSH	ESI
   187 000001E1 FF B5 FFFFFAE4                  	PUSH	DWORD [-1308+EBP]
   188 000001E7 E8 [00000000]                   	CALL	_sheet_setbuf
   189 000001EC 83 C4 28                        	ADD	ESP,40
   190 000001EF 0F BF 05 00000FF6               	MOVSX	EAX,WORD [4086]
   191 000001F6 50                              	PUSH	EAX
   192 000001F7 0F BF 05 00000FF4               	MOVSX	EAX,WORD [4084]
   193 000001FE 50                              	PUSH	EAX
   194 000001FF FF B5 FFFFFAE0                  	PUSH	DWORD [-1312+EBP]
   195 00000205 E8 [00000000]                   	CALL	_init_screen8
   196 0000020A 6A 63                           	PUSH	99
   197 0000020C 53                              	PUSH	EBX
   198 0000020D BB 00000002                     	MOV	EBX,2
   199 00000212 E8 [00000000]                   	CALL	_init_mouse_cursor8
   200 00000217 68 [00000000]                   	PUSH	LC0
   201 0000021C 6A 44                           	PUSH	68
   202 0000021E 68 000000A0                     	PUSH	160
   203 00000223 56                              	PUSH	ESI
   204 00000224 E8 [00000000]                   	CALL	_make_window8
   205 00000229 83 C4 24                        	ADD	ESP,36
   206 0000022C 6A 00                           	PUSH	0
   207 0000022E 6A 00                           	PUSH	0
   208 00000230 57                              	PUSH	EDI
   209 00000231 E8 [00000000]                   	CALL	_sheet_slide
   210 00000236 0F BF 05 00000FF4               	MOVSX	EAX,WORD [4084]
   211 0000023D 8D 48 F0                        	LEA	ECX,DWORD [-16+EAX]
   212 00000240 89 C8                           	MOV	EAX,ECX
   213 00000242 99                              	CDQ
   214 00000243 F7 FB                           	IDIV	EBX
   215 00000245 89 85 FFFFFAD8                  	MOV	DWORD [-1320+EBP],EAX
   216 0000024B 0F BF 05 00000FF6               	MOVSX	EAX,WORD [4086]
   217 00000252 8D 48 D4                        	LEA	ECX,DWORD [-44+EAX]
   218 00000255 89 C8                           	MOV	EAX,ECX
   219 00000257 99                              	CDQ
   220 00000258 F7 FB                           	IDIV	EBX
   221 0000025A 50                              	PUSH	EAX
   222 0000025B 89 85 FFFFFAD4                  	MOV	DWORD [-1324+EBP],EAX
   223 00000261 FF B5 FFFFFAD8                  	PUSH	DWORD [-1320+EBP]
   224 00000267 FF B5 FFFFFAE8                  	PUSH	DWORD [-1304+EBP]
   225 0000026D 8D 5D C4                        	LEA	EBX,DWORD [-60+EBP]
   226 00000270 E8 [00000000]                   	CALL	_sheet_slide
   227 00000275 6A 48                           	PUSH	72
   228 00000277 6A 50                           	PUSH	80
   229 00000279 FF B5 FFFFFAE4                  	PUSH	DWORD [-1308+EBP]
   230 0000027F E8 [00000000]                   	CALL	_sheet_slide
   231 00000284 83 C4 24                        	ADD	ESP,36
   232 00000287 6A 00                           	PUSH	0
   233 00000289 57                              	PUSH	EDI
   234 0000028A E8 [00000000]                   	CALL	_sheet_updown
   235 0000028F 6A 01                           	PUSH	1
   236 00000291 FF B5 FFFFFAE4                  	PUSH	DWORD [-1308+EBP]
   237 00000297 E8 [00000000]                   	CALL	_sheet_updown
   238 0000029C 6A 02                           	PUSH	2
   239 0000029E FF B5 FFFFFAE8                  	PUSH	DWORD [-1304+EBP]
   240 000002A4 E8 [00000000]                   	CALL	_sheet_updown
   241 000002A9 68 003C0000                     	PUSH	3932160
   242 000002AE E8 [00000000]                   	CALL	_memman_total
   243 000002B3 C1 AD FFFFFAEC 0A               	SHR	DWORD [-1300+EBP],10
   244 000002BA C1 E8 0A                        	SHR	EAX,10
   245 000002BD 89 04 24                        	MOV	DWORD [ESP],EAX
   246 000002C0 FF B5 FFFFFAEC                  	PUSH	DWORD [-1300+EBP]
   247 000002C6 68 [00000008]                   	PUSH	LC1
   248 000002CB 53                              	PUSH	EBX
   249 000002CC E8 [00000000]                   	CALL	_sprintf
   250 000002D1 83 C4 28                        	ADD	ESP,40
   251 000002D4 6A 28                           	PUSH	40
   252 000002D6 53                              	PUSH	EBX
   253 000002D7 6A 0E                           	PUSH	14
   254 000002D9 6A 07                           	PUSH	7
   255 000002DB 6A 20                           	PUSH	32
   256 000002DD 6A 00                           	PUSH	0
   257 000002DF 57                              	PUSH	EDI
   258 000002E0 E8 [00000000]                   	CALL	_putfonts8_asc_sht
   259 000002E5 6A 30                           	PUSH	48
   260 000002E7 0F BF 05 00000FF4               	MOVSX	EAX,WORD [4084]
   261 000002EE 50                              	PUSH	EAX
   262 000002EF 6A 00                           	PUSH	0
   263 000002F1 6A 00                           	PUSH	0
   264 000002F3 57                              	PUSH	EDI
   265 000002F4 E8 [00000000]                   	CALL	_sheet_refresh
   266 000002F9 83 C4 30                        	ADD	ESP,48
   267 000002FC C7 85 FFFFFACC 00000000         	MOV	DWORD [-1332+EBP],0
   268 00000306                                 L2:
   269 00000306 8D B5 FFFFFC04                  	LEA	ESI,DWORD [-1020+EBP]
   270 0000030C FF 85 FFFFFACC                  	INC	DWORD [-1332+EBP]
   271 00000312 E8 [00000000]                   	CALL	_io_cli
   272 00000317 56                              	PUSH	ESI
   273 00000318 E8 [00000000]                   	CALL	_fifo32_status
   274 0000031D 59                              	POP	ECX
   275 0000031E 85 C0                           	TEST	EAX,EAX
   276 00000320 0F 84 0000026B                  	JE	L28
   277 00000326 56                              	PUSH	ESI
   278 00000327 E8 [00000000]                   	CALL	_fifo32_get
   279 0000032C 89 C3                           	MOV	EBX,EAX
   280 0000032E E8 [00000000]                   	CALL	_io_sti
   281 00000333 5A                              	POP	EDX
   282 00000334 8D 83 FFFFFF00                  	LEA	EAX,DWORD [-256+EBX]
   283 0000033A 3D 000000FF                     	CMP	EAX,255
   284 0000033F 0F 86 00000224                  	JBE	L29
   285 00000345 8D 83 FFFFFE00                  	LEA	EAX,DWORD [-512+EBX]
   286 0000034B 3D 000000FF                     	CMP	EAX,255
   287 00000350 0F 86 000000E8                  	JBE	L30
   288 00000356 83 FB 0A                        	CMP	EBX,10
   289 00000359 0F 84 00000098                  	JE	L31
   290 0000035F 83 FB 03                        	CMP	EBX,3
   291 00000362 74 72                           	JE	L32
   292 00000364 85 DB                           	TEST	EBX,EBX
   293 00000366 74 54                           	JE	L33
   294 00000368 4B                              	DEC	EBX
   295 00000369 75 9B                           	JNE	L2
   296 0000036B 6A 01                           	PUSH	1
   297 0000036D 56                              	PUSH	ESI
   298 0000036E FF B5 FFFFFAF0                  	PUSH	DWORD [-1296+EBP]
   299 00000374 E8 [00000000]                   	CALL	_timer_init
   300 00000379 6A 6F                           	PUSH	111
   301 0000037B 6A 0F                           	PUSH	15
   302 0000037D 6A 60                           	PUSH	96
   303 0000037F 6A 08                           	PUSH	8
   304 00000381 6A 0E                           	PUSH	14
   305 00000383                                 L26:
   306 00000383 0F BF 05 00000FF4               	MOVSX	EAX,WORD [4084]
   307 0000038A 50                              	PUSH	EAX
   308 0000038B FF B5 FFFFFAE0                  	PUSH	DWORD [-1312+EBP]
   309 00000391 E8 [00000000]                   	CALL	_boxfill8
   310 00000396 83 C4 28                        	ADD	ESP,40
   311 00000399 6A 32                           	PUSH	50
   312 0000039B FF B5 FFFFFAF0                  	PUSH	DWORD [-1296+EBP]
   313 000003A1 E8 [00000000]                   	CALL	_timer_settime
   314 000003A6 6A 70                           	PUSH	112
   315 000003A8 6A 10                           	PUSH	16
   316 000003AA 6A 60                           	PUSH	96
   317 000003AC 6A 08                           	PUSH	8
   318 000003AE 57                              	PUSH	EDI
   319 000003AF E8 [00000000]                   	CALL	_sheet_refresh
   320 000003B4                                 L27:
   321 000003B4 83 C4 1C                        	ADD	ESP,28
   322 000003B7 E9 FFFFFF4A                     	JMP	L2
   323 000003BC                                 L33:
   324 000003BC 6A 00                           	PUSH	0
   325 000003BE 56                              	PUSH	ESI
   326 000003BF FF B5 FFFFFAF0                  	PUSH	DWORD [-1296+EBP]
   327 000003C5 E8 [00000000]                   	CALL	_timer_init
   328 000003CA 6A 6F                           	PUSH	111
   329 000003CC 6A 0F                           	PUSH	15
   330 000003CE 6A 60                           	PUSH	96
   331 000003D0 6A 08                           	PUSH	8
   332 000003D2 6A 07                           	PUSH	7
   333 000003D4 EB AD                           	JMP	L26
   334 000003D6                                 L32:
   335 000003D6 6A 06                           	PUSH	6
   336 000003D8 68 [00000022]                   	PUSH	LC7
   337 000003DD 6A 0E                           	PUSH	14
   338 000003DF 6A 07                           	PUSH	7
   339 000003E1 6A 50                           	PUSH	80
   340 000003E3 6A 00                           	PUSH	0
   341 000003E5 57                              	PUSH	EDI
   342 000003E6 E8 [00000000]                   	CALL	_putfonts8_asc_sht
   343 000003EB C7 85 FFFFFACC 00000000         	MOV	DWORD [-1332+EBP],0
   344 000003F5 EB BD                           	JMP	L27
   345 000003F7                                 L31:
   346 000003F7 6A 07                           	PUSH	7
   347 000003F9 8D 5D C4                        	LEA	EBX,DWORD [-60+EBP]
   348 000003FC 68 [00000029]                   	PUSH	LC5
   349 00000401 6A 0E                           	PUSH	14
   350 00000403 6A 07                           	PUSH	7
   351 00000405 6A 40                           	PUSH	64
   352 00000407 6A 00                           	PUSH	0
   353 00000409 57                              	PUSH	EDI
   354 0000040A E8 [00000000]                   	CALL	_putfonts8_asc_sht
   355 0000040F FF B5 FFFFFACC                  	PUSH	DWORD [-1332+EBP]
   356 00000415 68 [00000031]                   	PUSH	LC6
   357 0000041A 53                              	PUSH	EBX
   358 0000041B E8 [00000000]                   	CALL	_sprintf
   359 00000420 83 C4 28                        	ADD	ESP,40
   360 00000423 6A 0A                           	PUSH	10
   361 00000425 53                              	PUSH	EBX
   362 00000426 6A 08                           	PUSH	8
   363 00000428 6A 00                           	PUSH	0
   364 0000042A 6A 1C                           	PUSH	28
   365 0000042C 6A 28                           	PUSH	40
   366 0000042E FF B5 FFFFFAE4                  	PUSH	DWORD [-1308+EBP]
   367 00000434 E8 [00000000]                   	CALL	_putfonts8_asc_sht
   368 00000439 E9 FFFFFF76                     	JMP	L27
   369 0000043E                                 L30:
   370 0000043E 0F B6 C3                        	MOVZX	EAX,BL
   371 00000441 50                              	PUSH	EAX
   372 00000442 8D 85 FFFFFBF4                  	LEA	EAX,DWORD [-1036+EBP]
   373 00000448 50                              	PUSH	EAX
   374 00000449 E8 [00000000]                   	CALL	_mouse_decode
   375 0000044E 5A                              	POP	EDX
   376 0000044F 59                              	POP	ECX
   377 00000450 85 C0                           	TEST	EAX,EAX
   378 00000452 0F 84 FFFFFEAE                  	JE	L2
   379 00000458 FF B5 FFFFFBFC                  	PUSH	DWORD [-1028+EBP]
   380 0000045E FF B5 FFFFFBF8                  	PUSH	DWORD [-1032+EBP]
   381 00000464 68 [00000037]                   	PUSH	LC3
   382 00000469 8D 5D C4                        	LEA	EBX,DWORD [-60+EBP]
   383 0000046C 53                              	PUSH	EBX
   384 0000046D E8 [00000000]                   	CALL	_sprintf
   385 00000472 83 C4 10                        	ADD	ESP,16
   386 00000475 8B 85 FFFFFC00                  	MOV	EAX,DWORD [-1024+EBP]
   387 0000047B A9 00000001                     	TEST	EAX,1
   388 00000480 74 04                           	JE	L11
   389 00000482 C6 45 C5 4C                     	MOV	BYTE [-59+EBP],76
   390 00000486                                 L11:
   391 00000486 A9 00000002                     	TEST	EAX,2
   392 0000048B 74 04                           	JE	L12
   393 0000048D C6 45 C7 52                     	MOV	BYTE [-57+EBP],82
   394 00000491                                 L12:
   395 00000491 83 E0 04                        	AND	EAX,4
   396 00000494 74 04                           	JE	L13
   397 00000496 C6 45 C6 43                     	MOV	BYTE [-58+EBP],67
   398 0000049A                                 L13:
   399 0000049A 6A 0F                           	PUSH	15
   400 0000049C 53                              	PUSH	EBX
   401 0000049D 6A 0E                           	PUSH	14
   402 0000049F 6A 07                           	PUSH	7
   403 000004A1 6A 10                           	PUSH	16
   404 000004A3 6A 20                           	PUSH	32
   405 000004A5 57                              	PUSH	EDI
   406 000004A6 E8 [00000000]                   	CALL	_putfonts8_asc_sht
   407 000004AB 8B 95 FFFFFBF8                  	MOV	EDX,DWORD [-1032+EBP]
   408 000004B1 8B 85 FFFFFBFC                  	MOV	EAX,DWORD [-1028+EBP]
   409 000004B7 83 C4 1C                        	ADD	ESP,28
   410 000004BA 01 85 FFFFFAD4                  	ADD	DWORD [-1324+EBP],EAX
   411 000004C0 01 95 FFFFFAD8                  	ADD	DWORD [-1320+EBP],EDX
   412 000004C6 0F 88 0000008E                  	JS	L34
   413 000004CC                                 L14:
   414 000004CC 83 BD FFFFFAD4 00               	CMP	DWORD [-1324+EBP],0
   415 000004D3 78 76                           	JS	L35
   416 000004D5                                 L15:
   417 000004D5 0F BF 05 00000FF4               	MOVSX	EAX,WORD [4084]
   418 000004DC 48                              	DEC	EAX
   419 000004DD 39 85 FFFFFAD8                  	CMP	DWORD [-1320+EBP],EAX
   420 000004E3 7E 06                           	JLE	L16
   421 000004E5 89 85 FFFFFAD8                  	MOV	DWORD [-1320+EBP],EAX
   422 000004EB                                 L16:
   423 000004EB 0F BF 05 00000FF6               	MOVSX	EAX,WORD [4086]
   424 000004F2 48                              	DEC	EAX
   425 000004F3 39 85 FFFFFAD4                  	CMP	DWORD [-1324+EBP],EAX
   426 000004F9 7E 06                           	JLE	L17
   427 000004FB 89 85 FFFFFAD4                  	MOV	DWORD [-1324+EBP],EAX
   428 00000501                                 L17:
   429 00000501 FF B5 FFFFFAD4                  	PUSH	DWORD [-1324+EBP]
   430 00000507 FF B5 FFFFFAD8                  	PUSH	DWORD [-1320+EBP]
   431 0000050D 68 [00000045]                   	PUSH	LC4
   432 00000512 53                              	PUSH	EBX
   433 00000513 E8 [00000000]                   	CALL	_sprintf
   434 00000518 6A 0A                           	PUSH	10
   435 0000051A 53                              	PUSH	EBX
   436 0000051B 6A 0E                           	PUSH	14
   437 0000051D 6A 07                           	PUSH	7
   438 0000051F 6A 00                           	PUSH	0
   439 00000521 6A 00                           	PUSH	0
   440 00000523 57                              	PUSH	EDI
   441 00000524 E8 [00000000]                   	CALL	_putfonts8_asc_sht
   442 00000529 83 C4 2C                        	ADD	ESP,44
   443 0000052C FF B5 FFFFFAD4                  	PUSH	DWORD [-1324+EBP]
   444 00000532 FF B5 FFFFFAD8                  	PUSH	DWORD [-1320+EBP]
   445 00000538 FF B5 FFFFFAE8                  	PUSH	DWORD [-1304+EBP]
   446 0000053E E8 [00000000]                   	CALL	_sheet_slide
   447 00000543 83 C4 0C                        	ADD	ESP,12
   448 00000546 E9 FFFFFDBB                     	JMP	L2
   449 0000054B                                 L35:
   450 0000054B C7 85 FFFFFAD4 00000000         	MOV	DWORD [-1324+EBP],0
   451 00000555 E9 FFFFFF7B                     	JMP	L15
   452 0000055A                                 L34:
   453 0000055A C7 85 FFFFFAD8 00000000         	MOV	DWORD [-1320+EBP],0
   454 00000564 E9 FFFFFF63                     	JMP	L14
   455 00000569                                 L29:
   456 00000569 50                              	PUSH	EAX
   457 0000056A 8D 5D C4                        	LEA	EBX,DWORD [-60+EBP]
   458 0000056D 68 [00000050]                   	PUSH	LC2
   459 00000572 53                              	PUSH	EBX
   460 00000573 E8 [00000000]                   	CALL	_sprintf
   461 00000578 6A 02                           	PUSH	2
   462 0000057A 53                              	PUSH	EBX
   463 0000057B 6A 0E                           	PUSH	14
   464 0000057D 6A 07                           	PUSH	7
   465 0000057F 6A 10                           	PUSH	16
   466 00000581 6A 00                           	PUSH	0
   467 00000583 57                              	PUSH	EDI
   468 00000584 E8 [00000000]                   	CALL	_putfonts8_asc_sht
   469 00000589 83 C4 28                        	ADD	ESP,40
   470 0000058C E9 FFFFFD75                     	JMP	L2
   471 00000591                                 L28:
   472 00000591 E8 [00000000]                   	CALL	_io_sti
   473 00000596 E9 FFFFFD6B                     	JMP	L2
